; Function Attrs: nounwind uwtable
define dso_local noundef zeroext i1 @LWLockAcquireOrWait(ptr noundef %0, i32 noundef %1) local_unnamed_addr #0 {
  %3 = load ptr, ptr @MyProc, align 8
  %4 = load i32, ptr @num_held_lwlocks, align 4
  %5 = icmp sgt i32 %4, 199
  br i1 %5, label %6, label %9

6:                                                ; preds = %2
  %7 = tail call zeroext i1 @errstart_cold(i32 noundef 21, ptr noundef null) #17
  tail call void @llvm.assume(i1 %7)
  %8 = tail call i32 (ptr, ...) @errmsg_internal(ptr noundef nonnull @.str.3) #15
  tail call void @errfinish(ptr noundef nonnull @.str.1, i32 noundef 1413, ptr noundef nonnull @__func__.LWLockAcquireOrWait) #15
  unreachable

9:                                                ; preds = %2
  %10 = load volatile i32, ptr @InterruptHoldoffCount, align 4
  %11 = add i32 %10, 1
  store volatile i32 %11, ptr @InterruptHoldoffCount, align 4
  %12 = getelementptr inbounds nuw i8, ptr %0, i64 4
  %13 = load volatile i32, ptr %12, align 4
  %14 = icmp eq i32 %1, 0
  br i1 %14, label %.split.us.i, label %.split.i

.split.us.i:                                      ; preds = %9, %.split.us.i
  %.0.us.i = phi i32 [ %19, %.split.us.i ], [ %13, %9 ]
  %15 = and i32 %.0.us.i, 33554431
  %16 = icmp eq i32 %15, 0
  %17 = or disjoint i32 %.0.us.i, 16777216
  %spec.select.us.i = select i1 %16, i32 %17, i32 %.0.us.i
  %18 = tail call { i32, i8 } asm sideeffect "\09lock\09\09\09\09\0A\09cmpxchgl\09$4,$5\09\0A   setz\09\09$2\09\09\0A", "={ax},=*m,=q,{ax},r,*m,~{memory},~{cc},~{dirflag},~{fpsr},~{flags}"(ptr nonnull elementtype(i32) %12, i32 %.0.us.i, i32 %spec.select.us.i, ptr nonnull elementtype(i32) %12) #15, !srcloc !19
  %19 = extractvalue { i32, i8 } %18, 0
  %20 = extractvalue { i32, i8 } %18, 1
  %.not.us.i = icmp eq i8 %20, 0
  br i1 %.not.us.i, label %.split.us.i, label %LWLockAttemptLock.exit

.split.i:                                         ; preds = %9, %.split.i
  %.0.i = phi i32 [ %24, %.split.i ], [ %13, %9 ]
  %21 = and i32 %.0.i, 16777216
  %.lobit.i = lshr exact i32 %21, 24
  %22 = xor i32 %.lobit.i, 1
  %spec.select13.i = add nuw nsw i32 %22, %.0.i
  %23 = tail call { i32, i8 } asm sideeffect "\09lock\09\09\09\09\0A\09cmpxchgl\09$4,$5\09\0A   setz\09\09$2\09\09\0A", "={ax},=*m,=q,{ax},r,*m,~{memory},~{cc},~{dirflag},~{fpsr},~{flags}"(ptr nonnull elementtype(i32) %12, i32 %.0.i, i32 %spec.select13.i, ptr nonnull elementtype(i32) %12) #15, !srcloc !19
  %24 = extractvalue { i32, i8 } %23, 0
  %25 = extractvalue { i32, i8 } %23, 1
  %.not.i = icmp eq i8 %25, 0
  br i1 %.not.i, label %.split.i, label %.split18.i

.split18.i:                                       ; preds = %.split.i
  %26 = icmp eq i32 %21, 0
  br i1 %26, label %._crit_edge, label %27

LWLockAttemptLock.exit:                           ; preds = %.split.us.i
  br i1 %16, label %._crit_edge, label %27

27:                                               ; preds = %.split18.i, %LWLockAttemptLock.exit
  tail call fastcc void @LWLockQueueSelf(ptr noundef %0, i32 noundef 2)
  %28 = load volatile i32, ptr %12, align 4
  br i1 %14, label %.split.us.i26, label %.split.i18

.split.us.i26:                                    ; preds = %27, %.split.us.i26
  %.0.us.i27 = phi i32 [ %33, %.split.us.i26 ], [ %28, %27 ]
  %29 = and i32 %.0.us.i27, 33554431
  %30 = icmp eq i32 %29, 0
  %31 = or disjoint i32 %.0.us.i27, 16777216
  %spec.select.us.i28 = select i1 %30, i32 %31, i32 %.0.us.i27
  %32 = tail call { i32, i8 } asm sideeffect "\09lock\09\09\09\09\0A\09cmpxchgl\09$4,$5\09\0A   setz\09\09$2\09\09\0A", "={ax},=*m,=q,{ax},r,*m,~{memory},~{cc},~{dirflag},~{fpsr},~{flags}"(ptr nonnull elementtype(i32) %12, i32 %.0.us.i27, i32 %spec.select.us.i28, ptr nonnull elementtype(i32) %12) #15, !srcloc !19
  %33 = extractvalue { i32, i8 } %32, 0
  %34 = extractvalue { i32, i8 } %32, 1
  %.not.us.i29 = icmp eq i8 %34, 0
  br i1 %.not.us.i29, label %.split.us.i26, label %LWLockAttemptLock.exit30

.split.i18:                                       ; preds = %27, %.split.i18
  %.0.i19 = phi i32 [ %38, %.split.i18 ], [ %28, %27 ]
  %35 = and i32 %.0.i19, 16777216
  %.lobit.i20 = lshr exact i32 %35, 24
  %36 = xor i32 %.lobit.i20, 1
  %spec.select13.i21 = add nuw nsw i32 %36, %.0.i19
  %37 = tail call { i32, i8 } asm sideeffect "\09lock\09\09\09\09\0A\09cmpxchgl\09$4,$5\09\0A   setz\09\09$2\09\09\0A", "={ax},=*m,=q,{ax},r,*m,~{memory},~{cc},~{dirflag},~{fpsr},~{flags}"(ptr nonnull elementtype(i32) %12, i32 %.0.i19, i32 %spec.select13.i21, ptr nonnull elementtype(i32) %12) #15, !srcloc !19
  %38 = extractvalue { i32, i8 } %37, 0
  %39 = extractvalue { i32, i8 } %37, 1
  %.not.i22 = icmp eq i8 %39, 0
  br i1 %.not.i22, label %.split.i18, label %.split18.i23

.split18.i23:                                     ; preds = %.split.i18
  %40 = icmp eq i32 %35, 0
  br i1 %40, label %53, label %41

LWLockAttemptLock.exit30:                         ; preds = %.split.us.i26
  br i1 %30, label %53, label %41

41:                                               ; preds = %.split18.i23, %LWLockAttemptLock.exit30
  %42 = load i16, ptr %0, align 4
  %43 = zext i16 %42 to i32
  %44 = or disjoint i32 %43, 16777216
  %45 = load ptr, ptr @my_wait_event_info, align 8
  store volatile i32 %44, ptr %45, align 4
  %46 = getelementptr inbounds nuw i8, ptr %3, i64 24
  %47 = getelementptr inbounds nuw i8, ptr %3, i64 90
  br label %48

48:                                               ; preds = %48, %41
  %.1 = phi i32 [ 0, %41 ], [ %52, %48 ]
  %49 = load ptr, ptr %46, align 8
  tail call void @PGSemaphoreLock(ptr noundef %49) #15
  %50 = load i8, ptr %47, align 2
  %51 = icmp eq i8 %50, 0
  %52 = add i32 %.1, 1
  br i1 %51, label %54, label %48

53:                                               ; preds = %.split18.i23, %LWLockAttemptLock.exit30
  tail call fastcc void @LWLockDequeueSelf(ptr noundef %0)
  br label %._crit_edge

54:                                               ; preds = %48
  %55 = load ptr, ptr @my_wait_event_info, align 8
  store volatile i32 0, ptr %55, align 4
  %56 = icmp sgt i32 %.1, 0
  br i1 %56, label %.lr.ph, label %.loopexit

.lr.ph:                                           ; preds = %54
  %57 = getelementptr inbounds nuw i8, ptr %3, i64 24
  br label %58

58:                                               ; preds = %.lr.ph, %58
  %.234 = phi i32 [ %.1, %.lr.ph ], [ %59, %58 ]
  %59 = add nsw i32 %.234, -1
  %60 = load ptr, ptr %57, align 8
  tail call void @PGSemaphoreUnlock(ptr noundef %60) #15
  %61 = icmp samesign ugt i32 %.234, 1
  br i1 %61, label %58, label %.loopexit, !llvm.loop !23

.loopexit:                                        ; preds = %58, %54
  %62 = load volatile i32, ptr @InterruptHoldoffCount, align 4
  %63 = add i32 %62, -1
  store volatile i32 %63, ptr @InterruptHoldoffCount, align 4
  br label %69

._crit_edge:                                      ; preds = %.split18.i, %LWLockAttemptLock.exit, %53
  %64 = load i32, ptr @num_held_lwlocks, align 4
  %65 = sext i32 %64 to i64
  %66 = getelementptr inbounds [200 x %struct.LWLockHandle], ptr @held_lwlocks, i64 0, i64 %65
  store ptr %0, ptr %66, align 16
  %67 = add i32 %64, 1
  store i32 %67, ptr @num_held_lwlocks, align 4
  %68 = getelementptr inbounds [200 x %struct.LWLockHandle], ptr @held_lwlocks, i64 0, i64 %65, i32 1
  store i32 %1, ptr %68, align 8
  br label %69

69:                                               ; preds = %._crit_edge, %.loopexit
  %70 = phi i1 [ true, %._crit_edge ], [ false, %.loopexit ]
  ret i1 %70
}